; Function Attrs: mustprogress nofree norecurse nosync nounwind willreturn memory(argmem: readwrite) uwtable
define hidden noundef zeroext i1 @_ZN3smt6theory8lazy_popERj(ptr noundef nonnull align 8 captures(none) dereferenceable(53) %0, ptr noundef nonnull align 4 captures(none) dereferenceable(4) %1) local_unnamed_addr #7 align 2 {
  %3 = getelementptr inbounds nuw i8, ptr %0, i64 48
  %4 = load i32, ptr %3, align 8, !tbaa !10
  %5 = load i32, ptr %1, align 4, !tbaa !10
  %6 = tail call i32 @llvm.umin.i32(i32 %4, i32 %5)
  %7 = sub i32 %5, %6
  store i32 %7, ptr %1, align 4, !tbaa !10
  %8 = load i32, ptr %3, align 8, !tbaa !24
  %9 = sub i32 %8, %6
  store i32 %9, ptr %3, align 8, !tbaa !24
  %10 = load i32, ptr %1, align 4, !tbaa !10
  %11 = icmp eq i32 %10, 0
  ret i1 %11
}